; Function Attrs: nounwind sspstrong uwtable
define dso_local void @tcg_gen_ext_i64(ptr noundef %0, ptr noundef %1, i32 noundef %2) local_unnamed_addr #0 {
  %4 = and i32 %2, 15
  switch i32 %4, label %12 [
    i32 8, label %5
    i32 0, label %6
    i32 9, label %7
    i32 1, label %8
    i32 10, label %9
    i32 2, label %10
    i32 3, label %11
    i32 11, label %11
  ]

5:                                                ; preds = %3
  tail call void @tcg_gen_ext8s_i64(ptr noundef %0, ptr noundef %1) #6
  br label %13

6:                                                ; preds = %3
  tail call void @tcg_gen_ext8u_i64(ptr noundef %0, ptr noundef %1) #6
  br label %13

7:                                                ; preds = %3
  tail call void @tcg_gen_ext16s_i64(ptr noundef %0, ptr noundef %1) #6
  br label %13

8:                                                ; preds = %3
  tail call void @tcg_gen_ext16u_i64(ptr noundef %0, ptr noundef %1) #6
  br label %13

9:                                                ; preds = %3
  tail call void @tcg_gen_ext32s_i64(ptr noundef %0, ptr noundef %1) #6
  br label %13

10:                                               ; preds = %3
  tail call void @tcg_gen_ext32u_i64(ptr noundef %0, ptr noundef %1) #6
  br label %13

11:                                               ; preds = %3, %3
  tail call void @tcg_gen_mov_i64(ptr noundef %0, ptr noundef %1) #6
  br label %13

12:                                               ; preds = %3
  tail call void @g_assertion_message_expr(ptr noundef null, ptr noundef nonnull @.str, i32 noundef 844, ptr noundef nonnull @__func__.tcg_gen_ext_i64, ptr noundef null) #7
  unreachable

13:                                               ; preds = %11, %10, %9, %8, %7, %6, %5
  ret void
}